; Function Attrs: nounwind uwtable
define i32 @avpriv_ac3_parse_header(ptr noundef captures(none) %0, ptr noundef %1, i64 noundef %2) local_unnamed_addr #4 {
  %4 = alloca %struct.GetBitContext, align 8
  call void @llvm.lifetime.start.p0(i64 32, ptr nonnull %4) #8
  %5 = load ptr, ptr %0, align 8, !tbaa !41
  %.not = icmp eq ptr %5, null
  br i1 %.not, label %6, label %.thread

6:                                                ; preds = %3
  %7 = tail call noalias ptr @av_mallocz(i64 noundef 64) #8
  store ptr %7, ptr %0, align 8, !tbaa !41
  %.not10 = icmp eq ptr %7, null
  br i1 %.not10, label %24, label %.thread

.thread:                                          ; preds = %3, %6
  %8 = phi ptr [ %7, %6 ], [ %5, %3 ]
  %9 = trunc i64 %2 to i32
  %or.cond.i = icmp ugt i32 %9, 268435455
  %10 = shl nuw nsw i32 %9, 3
  %11 = select i1 %or.cond.i, i32 -8, i32 %10
  %or.cond.i.i = icmp ult i32 %11, 2147483135
  %12 = icmp ne ptr %1, null
  %or.cond3.i.i = and i1 %12, %or.cond.i.i
  %.018.i.i = select i1 %or.cond3.i.i, i32 %11, i32 0
  %.017.i.i = select i1 %or.cond.i.i, ptr %1, ptr null
  %13 = lshr exact i32 %.018.i.i, 3
  store ptr %.017.i.i, ptr %4, align 8, !tbaa !15
  %14 = getelementptr inbounds nuw i8, ptr %4, i64 20
  store i32 %.018.i.i, ptr %14, align 4, !tbaa !43
  %15 = add nuw nsw i32 %.018.i.i, 8
  %16 = getelementptr inbounds nuw i8, ptr %4, i64 24
  store i32 %15, ptr %16, align 8, !tbaa !14
  %17 = zext nneg i32 %13 to i64
  %18 = getelementptr inbounds nuw i8, ptr %.017.i.i, i64 %17
  %19 = getelementptr inbounds nuw i8, ptr %4, i64 8
  store ptr %18, ptr %19, align 8, !tbaa !44
  %20 = getelementptr inbounds nuw i8, ptr %4, i64 16
  store i32 0, ptr %20, align 8, !tbaa !9
  br i1 %or.cond3.i.i, label %21, label %24

21:                                               ; preds = %.thread
  %22 = call i32 @ff_ac3_parse_header(ptr noundef nonnull %4, ptr noundef nonnull %8)
  %23 = icmp slt i32 %22, 0
  %.val = load i32, ptr %20, align 8
  %spec.select = select i1 %23, i32 -1094995529, i32 %.val
  br label %24

24:                                               ; preds = %21, %.thread, %6
  %.0 = phi i32 [ -12, %6 ], [ -1094995529, %.thread ], [ %spec.select, %21 ]
  call void @llvm.lifetime.end.p0(i64 32, ptr nonnull %4) #8
  ret i32 %.0
}